; Function Attrs: nounwind uwtable
define internal ptr @_ctypes_CFuncPtr_argtypes_get(ptr noundef readonly captures(none) %0, ptr readnone captures(none) %1) #0 {
  %3 = getelementptr inbounds nuw i8, ptr %0, i64 120
  %4 = load ptr, ptr %3, align 8, !tbaa !195
  %.not.i = icmp eq ptr %4, null
  br i1 %.not.i, label %PyStgInfo_FromObject.exit.i, label %5

5:                                                ; preds = %2
  %6 = load i32, ptr %4, align 8, !tbaa !23
  %7 = icmp slt i32 %6, 0
  br i1 %7, label %_ctypes_CFuncPtr_argtypes_get_impl.exit, label %_Py_NewRef.exit.sink.split.i

PyStgInfo_FromObject.exit.i:                      ; preds = %2
  %8 = getelementptr i8, ptr %0, i64 8
  %.val9.i = load ptr, ptr %8, align 8, !tbaa !10
  %9 = getelementptr i8, ptr %.val9.i, i64 8
  %.val.i = load ptr, ptr %9, align 8, !tbaa !10
  %10 = tail call ptr @PyType_GetModuleByDef(ptr noundef %.val.i, ptr noundef nonnull @_ctypesmodule) #17
  %11 = getelementptr i8, ptr %10, i64 32
  %.val.i.i = load ptr, ptr %11, align 8, !tbaa !63
  %.val10.i = load ptr, ptr %8, align 8, !tbaa !10
  %12 = getelementptr inbounds nuw i8, ptr %.val.i.i, i64 40
  %13 = load ptr, ptr %12, align 8, !tbaa !28
  %14 = tail call i32 @PyObject_IsInstance(ptr noundef %.val10.i, ptr noundef %13) #17
  %.not.i.i.i = icmp ne i32 %14, 0
  tail call void @llvm.assume(i1 %.not.i.i.i)
  %15 = load ptr, ptr %12, align 8, !tbaa !28
  %16 = tail call ptr @PyObject_GetTypeData(ptr noundef %.val10.i, ptr noundef %15) #17
  %17 = load i32, ptr %16, align 8, !tbaa !29
  %.not8.i.i.i = icmp ne i32 %17, 0
  tail call void @llvm.assume(i1 %.not8.i.i.i)
  %18 = getelementptr inbounds nuw i8, ptr %16, i64 88
  %19 = load ptr, ptr %18, align 8, !tbaa !83
  %.not8.i = icmp eq ptr %19, null
  br i1 %.not8.i, label %_ctypes_CFuncPtr_argtypes_get_impl.exit, label %20

20:                                               ; preds = %PyStgInfo_FromObject.exit.i
  %21 = load i32, ptr %19, align 8, !tbaa !23
  %22 = icmp slt i32 %21, 0
  br i1 %22, label %_ctypes_CFuncPtr_argtypes_get_impl.exit, label %_Py_NewRef.exit.sink.split.i

_Py_NewRef.exit.sink.split.i:                     ; preds = %20, %5
  %.sink14.i = phi i32 [ %6, %5 ], [ %21, %20 ]
  %.sink13.i = phi ptr [ %4, %5 ], [ %19, %20 ]
  %23 = add nuw i32 %.sink14.i, 1
  store i32 %23, ptr %.sink13.i, align 8, !tbaa !23
  br label %_ctypes_CFuncPtr_argtypes_get_impl.exit

_ctypes_CFuncPtr_argtypes_get_impl.exit:          ; preds = %5, %PyStgInfo_FromObject.exit.i, %20, %_Py_NewRef.exit.sink.split.i
  %.0.i = phi ptr [ %4, %5 ], [ @_Py_NoneStruct, %PyStgInfo_FromObject.exit.i ], [ %19, %20 ], [ %.sink13.i, %_Py_NewRef.exit.sink.split.i ]
  ret ptr %.0.i
}